target datalayout = "e-m:e-p270:32:32-p271:32:32-p272:64:64-i64:64-i128:128-f80:128-n8:16:32:64-S128"
target triple = "x86_64-pc-linux-gnu"

%struct.SDL_AtomicInt = type { i32 }
%struct.SDL_EVDEV_keyboard_state = type { i32, i8, i32, ptr, [9 x i8], i8, i32, ptr, i32, i8, i8, i8, i8, i8, [128 x i8], i32, ptr, ptr, ptr, ptr }

@vt_signal_pending = internal global %struct.SDL_AtomicInt zeroinitializer, align 4

; Function Attrs: nounwind uwtable
define internal void @kbd_vt_update(ptr noundef %0) #0 {
  %2 = alloca ptr, align 8
  %3 = alloca i32, align 4
  store ptr %0, ptr %2, align 8
  call void @llvm.lifetime.start.p0(i64 4, ptr %3) #7
  %4 = call i32 @SDL_GetAtomicInt_REAL(ptr noundef @vt_signal_pending)
  store i32 %4, ptr %3, align 4
  %5 = load i32, ptr %3, align 4
  %6 = icmp ne i32 %5, 0
  br i1 %6, label %7, label %47

7:                                                ; preds = %1
  %8 = load i32, ptr %3, align 4
  %9 = icmp eq i32 %8, 1
  br i1 %9, label %10, label %27

10:                                               ; preds = %7
  %11 = load ptr, ptr %2, align 8
  %12 = getelementptr inbounds nuw %struct.SDL_EVDEV_keyboard_state, ptr %11, i32 0, i32 16
  %13 = load ptr, ptr %12, align 8
  %14 = icmp ne ptr %13, null
  br i1 %14, label %15, label %22

15:                                               ; preds = %10
  %16 = load ptr, ptr %2, align 8
  %17 = getelementptr inbounds nuw %struct.SDL_EVDEV_keyboard_state, ptr %16, i32 0, i32 16
  %18 = load ptr, ptr %17, align 8
  %19 = load ptr, ptr %2, align 8
  %20 = getelementptr inbounds nuw %struct.SDL_EVDEV_keyboard_state, ptr %19, i32 0, i32 17
  %21 = load ptr, ptr %20, align 8
  call void %18(ptr noundef %21)
  br label %22

22:                                               ; preds = %15, %10
  %23 = load ptr, ptr %2, align 8
  %24 = getelementptr inbounds nuw %struct.SDL_EVDEV_keyboard_state, ptr %23, i32 0, i32 0
  %25 = load i32, ptr %24, align 8
  %26 = call i32 (i32, i64, ...) @ioctl(i32 noundef %25, i64 noundef 22021, i32 noundef 1) #7
  br label %44

27:                                               ; preds = %7
  %28 = load ptr, ptr %2, align 8
  %29 = getelementptr inbounds nuw %struct.SDL_EVDEV_keyboard_state, ptr %28, i32 0, i32 18
  %30 = load ptr, ptr %29, align 8
  %31 = icmp ne ptr %30, null
  br i1 %31, label %32, label %39

32:                                               ; preds = %27
  %33 = load ptr, ptr %2, align 8
  %34 = getelementptr inbounds nuw %struct.SDL_EVDEV_keyboard_state, ptr %33, i32 0, i32 18
  %35 = load ptr, ptr %34, align 8
  %36 = load ptr, ptr %2, align 8
  %37 = getelementptr inbounds nuw %struct.SDL_EVDEV_keyboard_state, ptr %36, i32 0, i32 19
  %38 = load ptr, ptr %37, align 8
  call void %35(ptr noundef %38)
  br label %39

39:                                               ; preds = %32, %27
  %40 = load ptr, ptr %2, align 8
  %41 = getelementptr inbounds nuw %struct.SDL_EVDEV_keyboard_state, ptr %40, i32 0, i32 0
  %42 = load i32, ptr %41, align 8
  %43 = call i32 (i32, i64, ...) @ioctl(i32 noundef %42, i64 noundef 22021, i32 noundef 2) #7
  br label %44

44:                                               ; preds = %39, %22
  %45 = load i32, ptr %3, align 4
  %46 = call zeroext i1 @SDL_CompareAndSwapAtomicInt_REAL(ptr noundef @vt_signal_pending, i32 noundef %45, i32 noundef 0)
  br label %47

47:                                               ; preds = %44, %1
  call void @llvm.lifetime.end.p0(i64 4, ptr %3) #7
  ret void
}

; Function Attrs: nounwind uwtable
define hidden void @SDL_EVDEV_kbd_update(ptr noundef %0) #0 {
  %2 = alloca ptr, align 8
  store ptr %0, ptr %2, align 8
  %3 = load ptr, ptr %2, align 8
  %4 = icmp ne ptr %3, null
  br i1 %4, label %6, label %5

5:                                                ; preds = %1
  br label %8

6:                                                ; preds = %1
  %7 = load ptr, ptr %2, align 8
  call void @kbd_vt_update(ptr noundef %7)
  br label %8

8:                                                ; preds = %6, %5
  ret void
}