; Function Attrs: nounwind uwtable
define hidden void @SDL_EVDEV_kbd_update(ptr noundef readonly captures(address_is_null) %0) local_unnamed_addr #0 {
  %.not = icmp eq ptr %0, null
  br i1 %.not, label %kbd_vt_update.exit, label %2

2:                                                ; preds = %1
  %3 = tail call i32 @SDL_GetAtomicInt_REAL(ptr noundef nonnull @vt_signal_pending) #12
  switch i32 %3, label %7 [
    i32 0, label %kbd_vt_update.exit
    i32 1, label %4
  ]

4:                                                ; preds = %2
  %5 = getelementptr inbounds nuw i8, ptr %0, i64 192
  %6 = load ptr, ptr %5, align 8
  %.not13.i = icmp eq ptr %6, null
  br i1 %.not13.i, label %12, label %.sink.split.i

7:                                                ; preds = %2
  %8 = getelementptr inbounds nuw i8, ptr %0, i64 208
  %9 = load ptr, ptr %8, align 8
  %.not12.i = icmp eq ptr %9, null
  br i1 %.not12.i, label %12, label %.sink.split.i

.sink.split.i:                                    ; preds = %7, %4
  %.sink.i = phi i64 [ 200, %4 ], [ 216, %7 ]
  %.sink15.i = phi ptr [ %6, %4 ], [ %9, %7 ]
  %.sink14.ph.i = phi i32 [ 1, %4 ], [ 2, %7 ]
  %10 = getelementptr inbounds nuw i8, ptr %0, i64 %.sink.i
  %11 = load ptr, ptr %10, align 8
  tail call void %.sink15.i(ptr noundef %11) #12
  br label %12

12:                                               ; preds = %.sink.split.i, %7, %4
  %.sink14.i = phi i32 [ 1, %4 ], [ 2, %7 ], [ %.sink14.ph.i, %.sink.split.i ]
  %13 = load i32, ptr %0, align 8
  %14 = tail call i32 (i32, i64, ...) @ioctl(i32 noundef %13, i64 noundef 22021, i32 noundef %.sink14.i) #12
  %15 = tail call zeroext i1 @SDL_CompareAndSwapAtomicInt_REAL(ptr noundef nonnull @vt_signal_pending, i32 noundef %3, i32 noundef 0) #12
  br label %kbd_vt_update.exit

kbd_vt_update.exit:                               ; preds = %12, %2, %1
  ret void
}